; ModuleID = '7/955.c'
source_filename = "7/955.c"
target datalayout = "e-m:e-p270:32:32-p271:32:32-p272:64:64-i64:64-f80:128-n8:16:32:64-S128"
target triple = "x86_64-pc-linux-gnu"

@.str = private unnamed_addr constant [3 x i8] c"%c\00", align 1

; Function Attrs: noinline nounwind uwtable
define dso_local i32 @main() #0 {
  %1 = alloca i32, align 4
  %2 = alloca [266 x i8], align 16
  %3 = alloca [22 x i8], align 16
  %4 = alloca [22 x i8], align 16
  %5 = alloca i32, align 4
  %6 = alloca i32, align 4
  %7 = alloca i32, align 4
  %8 = alloca i32, align 4
  %9 = alloca i32, align 4
  %10 = alloca i32, align 4
  %11 = alloca i32, align 4
  %12 = alloca i32, align 4
  store i32 0, i32* %1, align 4
  %13 = getelementptr inbounds [266 x i8], [266 x i8]* %2, i64 0, i64 0
  %14 = call i32 (i8*, ...) bitcast (i32 (...)* @gets to i32 (i8*, ...)*)(i8* %13)
  %15 = getelementptr inbounds [22 x i8], [22 x i8]* %3, i64 0, i64 0
  %16 = call i32 (i8*, ...) bitcast (i32 (...)* @gets to i32 (i8*, ...)*)(i8* %15)
  %17 = getelementptr inbounds [22 x i8], [22 x i8]* %4, i64 0, i64 0
  %18 = call i32 (i8*, ...) bitcast (i32 (...)* @gets to i32 (i8*, ...)*)(i8* %17)
  store i32 1, i32* %8, align 4
  store i32 0, i32* %6, align 4
  br label %19

19:                                               ; preds = %70, %0
  %20 = load i32, i32* %6, align 4
  %21 = sext i32 %20 to i64
  %22 = getelementptr inbounds [266 x i8], [266 x i8]* %2, i64 0, i64 %21
  %23 = load i8, i8* %22, align 1
  %24 = sext i8 %23 to i32
  %25 = icmp ne i32 %24, 0
  br i1 %25, label %26, label %73

26:                                               ; preds = %19
  %27 = getelementptr inbounds [22 x i8], [22 x i8]* %3, i64 0, i64 0
  %28 = load i8, i8* %27, align 16
  %29 = sext i8 %28 to i32
  %30 = load i32, i32* %6, align 4
  %31 = sext i32 %30 to i64
  %32 = getelementptr inbounds [266 x i8], [266 x i8]* %2, i64 0, i64 %31
  %33 = load i8, i8* %32, align 1
  %34 = sext i8 %33 to i32
  %35 = icmp eq i32 %29, %34
  br i1 %35, label %36, label %69

36:                                               ; preds = %26
  store i32 1, i32* %8, align 4
  %37 = load i32, i32* %6, align 4
  store i32 %37, i32* %9, align 4
  store i32 0, i32* %11, align 4
  br label %38

38:                                               ; preds = %61, %36
  %39 = load i32, i32* %11, align 4
  %40 = sext i32 %39 to i64
  %41 = getelementptr inbounds [22 x i8], [22 x i8]* %3, i64 0, i64 %40
  %42 = load i8, i8* %41, align 1
  %43 = sext i8 %42 to i32
  %44 = icmp ne i32 %43, 0
  br i1 %44, label %45, label %64

45:                                               ; preds = %38
  %46 = load i32, i32* %11, align 4
  %47 = sext i32 %46 to i64
  %48 = getelementptr inbounds [22 x i8], [22 x i8]* %3, i64 0, i64 %47
  %49 = load i8, i8* %48, align 1
  %50 = sext i8 %49 to i32
  %51 = load i32, i32* %6, align 4
  %52 = sext i32 %51 to i64
  %53 = getelementptr inbounds [266 x i8], [266 x i8]* %2, i64 0, i64 %52
  %54 = load i8, i8* %53, align 1
  %55 = sext i8 %54 to i32
  %56 = icmp ne i32 %50, %55
  br i1 %56, label %57, label %58

57:                                               ; preds = %45
  store i32 0, i32* %8, align 4
  br label %58

58:                                               ; preds = %57, %45
  %59 = load i32, i32* %6, align 4
  %60 = add nsw i32 %59, 1
  store i32 %60, i32* %6, align 4
  br label %61

61:                                               ; preds = %58
  %62 = load i32, i32* %11, align 4
  %63 = add nsw i32 %62, 1
  store i32 %63, i32* %11, align 4
  br label %38

64:                                               ; preds = %38
  %65 = load i32, i32* %8, align 4
  %66 = icmp ne i32 %65, 0
  br i1 %66, label %67, label %68

67:                                               ; preds = %64
  br label %73

68:                                               ; preds = %64
  br label %69

69:                                               ; preds = %68, %26
  br label %70

70:                                               ; preds = %69
  %71 = load i32, i32* %6, align 4
  %72 = add nsw i32 %71, 1
  store i32 %72, i32* %6, align 4
  br label %19

73:                                               ; preds = %67, %19
  store i32 0, i32* %5, align 4
  br label %74

74:                                               ; preds = %82, %73
  %75 = load i32, i32* %5, align 4
  %76 = sext i32 %75 to i64
  %77 = getelementptr inbounds [22 x i8], [22 x i8]* %3, i64 0, i64 %76
  %78 = load i8, i8* %77, align 1
  %79 = sext i8 %78 to i32
  %80 = icmp ne i32 %79, 0
  br i1 %80, label %81, label %85

81:                                               ; preds = %74
  br label %82

82:                                               ; preds = %81
  %83 = load i32, i32* %5, align 4
  %84 = add nsw i32 %83, 1
  store i32 %84, i32* %5, align 4
  br label %74

85:                                               ; preds = %74
  %86 = load i32, i32* %8, align 4
  %87 = icmp ne i32 %86, 0
  br i1 %87, label %88, label %139

88:                                               ; preds = %85
  store i32 0, i32* %7, align 4
  br label %89

89:                                               ; preds = %135, %88
  %90 = load i32, i32* %7, align 4
  %91 = sext i32 %90 to i64
  %92 = getelementptr inbounds [266 x i8], [266 x i8]* %2, i64 0, i64 %91
  %93 = load i8, i8* %92, align 1
  %94 = sext i8 %93 to i32
  %95 = icmp ne i32 %94, 0
  br i1 %95, label %96, label %138

96:                                               ; preds = %89
  %97 = load i32, i32* %9, align 4
  %98 = icmp eq i32 %97, 48
  br i1 %98, label %99, label %100

99:                                               ; preds = %96
  store i32 17, i32* %9, align 4
  br label %100

100:                                              ; preds = %99, %96
  %101 = load i32, i32* %7, align 4
  %102 = load i32, i32* %9, align 4
  %103 = icmp eq i32 %101, %102
  br i1 %103, label %104, label %127

104:                                              ; preds = %100
  store i32 0, i32* %12, align 4
  br label %105

105:                                              ; preds = %119, %104
  %106 = load i32, i32* %12, align 4
  %107 = sext i32 %106 to i64
  %108 = getelementptr inbounds [22 x i8], [22 x i8]* %4, i64 0, i64 %107
  %109 = load i8, i8* %108, align 1
  %110 = sext i8 %109 to i32
  %111 = icmp ne i32 %110, 0
  br i1 %111, label %112, label %122

112:                                              ; preds = %105
  %113 = load i32, i32* %12, align 4
  %114 = sext i32 %113 to i64
  %115 = getelementptr inbounds [22 x i8], [22 x i8]* %4, i64 0, i64 %114
  %116 = load i8, i8* %115, align 1
  %117 = sext i8 %116 to i32
  %118 = call i32 (i8*, ...) @printf(i8* getelementptr inbounds ([3 x i8], [3 x i8]* @.str, i64 0, i64 0), i32 %117)
  br label %119

119:                                              ; preds = %112
  %120 = load i32, i32* %12, align 4
  %121 = add nsw i32 %120, 1
  store i32 %121, i32* %12, align 4
  br label %105

122:                                              ; preds = %105
  %123 = load i32, i32* %9, align 4
  %124 = load i32, i32* %5, align 4
  %125 = add nsw i32 %123, %124
  %126 = sub nsw i32 %125, 1
  store i32 %126, i32* %7, align 4
  br label %134

127:                                              ; preds = %100
  %128 = load i32, i32* %7, align 4
  %129 = sext i32 %128 to i64
  %130 = getelementptr inbounds [266 x i8], [266 x i8]* %2, i64 0, i64 %129
  %131 = load i8, i8* %130, align 1
  %132 = sext i8 %131 to i32
  %133 = call i32 (i8*, ...) @printf(i8* getelementptr inbounds ([3 x i8], [3 x i8]* @.str, i64 0, i64 0), i32 %132)
  br label %134

134:                                              ; preds = %127, %122
  br label %135

135:                                              ; preds = %134
  %136 = load i32, i32* %7, align 4
  %137 = add nsw i32 %136, 1
  store i32 %137, i32* %7, align 4
  br label %89

138:                                              ; preds = %89
  br label %139

139:                                              ; preds = %138, %85
  ret i32 0
}

declare dso_local i32 @gets(...) #1

declare dso_local i32 @printf(i8*, ...) #1


!llvm.module.flags = !{!0}
!llvm.ident = !{!1}

!0 = !{i32 1, !"wchar_size", i32 4}
!1 = !{!"clang version 10.0.0-4ubuntu1 "}
